target datalayout = "e-m:e-p270:32:32-p271:32:32-p272:64:64-i64:64-i128:128-f80:128-n8:16:32:64-S128"
target triple = "x86_64-pc-linux-gnu"

%class.File = type { ptr, i64, i8, i32, i8, i8, i32, i8, i8, i8, i8, i8, i64, i8, [2048 x i32], i32, ptr }

; Function Attrs: mustprogress uwtable
define noundef zeroext i1 @_ZN4File6CreateEPKwj(ptr noundef nonnull align 8 dereferenceable(8256) %0, ptr noundef %1, i32 noundef %2) #1 align 2 {
  %4 = alloca ptr, align 8
  %5 = alloca ptr, align 8
  %6 = alloca i32, align 4
  %7 = alloca i8, align 1
  %8 = alloca i8, align 1
  %9 = alloca [2048 x i8], align 16
  store ptr %0, ptr %4, align 8
  store ptr %1, ptr %5, align 8
  store i32 %2, ptr %6, align 4
  %10 = load ptr, ptr %4, align 8
  %11 = load i32, ptr %6, align 4
  %12 = and i32 %11, 2
  %13 = icmp ne i32 %12, 0
  %14 = zext i1 %13 to i8
  store i8 %14, ptr %7, align 1
  %15 = load i32, ptr %6, align 4
  %16 = and i32 %15, 16
  %17 = icmp ne i32 %16, 0
  br i1 %17, label %22, label %18

18:                                               ; preds = %3
  %19 = getelementptr inbounds %class.File, ptr %10, i32 0, i32 13
  %20 = load i8, ptr %19, align 8
  %21 = trunc i8 %20 to i1
  br label %22

22:                                               ; preds = %18, %3
  %23 = phi i1 [ true, %3 ], [ %21, %18 ]
  %24 = zext i1 %23 to i8
  store i8 %24, ptr %8, align 1
  %25 = load ptr, ptr %5, align 8
  %26 = getelementptr inbounds [2048 x i8], ptr %9, i64 0, i64 0
  %27 = call noundef zeroext i1 @_Z10WideToCharPKwPcm(ptr noundef %25, ptr noundef %26, i64 noundef 2048)
  %28 = getelementptr inbounds [2048 x i8], ptr %9, i64 0, i64 0
  %29 = load i8, ptr %7, align 1
  %30 = trunc i8 %29 to i1
  %31 = select i1 %30, i32 1, i32 2
  %32 = or i32 576, %31
  %33 = call i32 (ptr, i32, ...) @open64(ptr noundef %28, i32 noundef %32, i32 noundef 438)
  %34 = sext i32 %33 to i64
  %35 = getelementptr inbounds %class.File, ptr %10, i32 0, i32 1
  store i64 %34, ptr %35, align 8
  %36 = getelementptr inbounds %class.File, ptr %10, i32 0, i32 7
  store i8 1, ptr %36, align 8
  %37 = getelementptr inbounds %class.File, ptr %10, i32 0, i32 3
  store i32 0, ptr %37, align 4
  %38 = getelementptr inbounds %class.File, ptr %10, i32 0, i32 5
  store i8 0, ptr %38, align 1
  %39 = getelementptr inbounds %class.File, ptr %10, i32 0, i32 14
  %40 = getelementptr inbounds [2048 x i32], ptr %39, i64 0, i64 0
  %41 = load ptr, ptr %5, align 8
  call void @_Z8wcsncpyzPwPKwm(ptr noundef %40, ptr noundef %41, i64 noundef 2048)
  %42 = getelementptr inbounds %class.File, ptr %10, i32 0, i32 1
  %43 = load i64, ptr %42, align 8
  %44 = icmp ne i64 %43, -1
  ret i1 %44
}