; Function Attrs: mustprogress uwtable
define noundef zeroext i1 @_ZN4File6CreateEPKwj(ptr noundef nonnull align 8 dereferenceable(8256) %0, ptr noundef %1, i32 noundef %2) local_unnamed_addr #2 align 2 {
  %4 = alloca [2048 x i8], align 16
  %5 = and i32 %2, 2
  %.not = icmp eq i32 %5, 0
  %6 = call noundef zeroext i1 @_Z10WideToCharPKwPcm(ptr noundef %1, ptr noundef nonnull %4, i64 noundef 2048)
  %7 = select i1 %.not, i32 578, i32 577
  %8 = call i32 (ptr, i32, ...) @open64(ptr noundef nonnull %4, i32 noundef %7, i32 noundef 438)
  %9 = sext i32 %8 to i64
  %10 = getelementptr inbounds i8, ptr %0, i64 8
  store i64 %9, ptr %10, align 8
  %11 = getelementptr inbounds i8, ptr %0, i64 32
  store i8 1, ptr %11, align 8
  %12 = getelementptr inbounds i8, ptr %0, i64 20
  store i32 0, ptr %12, align 4
  %13 = getelementptr inbounds i8, ptr %0, i64 25
  store i8 0, ptr %13, align 1
  %14 = getelementptr inbounds i8, ptr %0, i64 52
  call void @_Z8wcsncpyzPwPKwm(ptr noundef nonnull %14, ptr noundef %1, i64 noundef 2048)
  %15 = load i64, ptr %10, align 8
  %16 = icmp ne i64 %15, -1
  ret i1 %16
}